target datalayout = "e-m:e-p270:32:32-p271:32:32-p272:64:64-i64:64-i128:128-f80:128-n8:16:32:64-S128"
target triple = "x86_64-pc-linux-gnu"

; Function Attrs: nounwind uwtable
define internal ptr @trim_directory(ptr noundef %0) #0 {
  %2 = alloca ptr, align 8
  %3 = alloca ptr, align 8
  %4 = alloca ptr, align 8
  %5 = alloca i32, align 4
  store ptr %0, ptr %3, align 8
  call void @llvm.lifetime.start.p0(i64 8, ptr %4) #10
  %6 = load ptr, ptr %3, align 8
  store ptr %6, ptr %3, align 8
  %7 = load ptr, ptr %3, align 8
  %8 = getelementptr inbounds i8, ptr %7, i64 0
  %9 = load i8, ptr %8, align 1
  %10 = sext i8 %9 to i32
  %11 = icmp eq i32 %10, 0
  br i1 %11, label %12, label %14

12:                                               ; preds = %1
  %13 = load ptr, ptr %3, align 8
  store ptr %13, ptr %2, align 8
  store i32 1, ptr %5, align 4
  br label %83

14:                                               ; preds = %1
  %15 = load ptr, ptr %3, align 8
  %16 = load ptr, ptr %3, align 8
  %17 = call i64 @strlen(ptr noundef %16) #11
  %18 = getelementptr inbounds nuw i8, ptr %15, i64 %17
  %19 = getelementptr inbounds i8, ptr %18, i64 -1
  store ptr %19, ptr %4, align 8
  br label %20

20:                                               ; preds = %32, %14
  %21 = load ptr, ptr %4, align 8
  %22 = load i8, ptr %21, align 1
  %23 = sext i8 %22 to i32
  %24 = icmp eq i32 %23, 47
  br i1 %24, label %25, label %29

25:                                               ; preds = %20
  %26 = load ptr, ptr %4, align 8
  %27 = load ptr, ptr %3, align 8
  %28 = icmp ugt ptr %26, %27
  br label %29

29:                                               ; preds = %25, %20
  %30 = phi i1 [ false, %20 ], [ %28, %25 ]
  br i1 %30, label %31, label %35

31:                                               ; preds = %29
  br label %32

32:                                               ; preds = %31
  %33 = load ptr, ptr %4, align 8
  %34 = getelementptr inbounds i8, ptr %33, i32 -1
  store ptr %34, ptr %4, align 8
  br label %20, !llvm.loop !15

35:                                               ; preds = %29
  br label %36

36:                                               ; preds = %48, %35
  %37 = load ptr, ptr %4, align 8
  %38 = load i8, ptr %37, align 1
  %39 = sext i8 %38 to i32
  %40 = icmp eq i32 %39, 47
  br i1 %40, label %45, label %41

41:                                               ; preds = %36
  %42 = load ptr, ptr %4, align 8
  %43 = load ptr, ptr %3, align 8
  %44 = icmp ugt ptr %42, %43
  br label %45

45:                                               ; preds = %41, %36
  %46 = phi i1 [ false, %36 ], [ %44, %41 ]
  br i1 %46, label %47, label %51

47:                                               ; preds = %45
  br label %48

48:                                               ; preds = %47
  %49 = load ptr, ptr %4, align 8
  %50 = getelementptr inbounds i8, ptr %49, i32 -1
  store ptr %50, ptr %4, align 8
  br label %36, !llvm.loop !16

51:                                               ; preds = %45
  br label %52

52:                                               ; preds = %65, %51
  %53 = load ptr, ptr %4, align 8
  %54 = load ptr, ptr %3, align 8
  %55 = icmp ugt ptr %53, %54
  br i1 %55, label %56, label %62

56:                                               ; preds = %52
  %57 = load ptr, ptr %4, align 8
  %58 = getelementptr inbounds i8, ptr %57, i64 -1
  %59 = load i8, ptr %58, align 1
  %60 = sext i8 %59 to i32
  %61 = icmp eq i32 %60, 47
  br label %62

62:                                               ; preds = %56, %52
  %63 = phi i1 [ false, %52 ], [ %61, %56 ]
  br i1 %63, label %64, label %68

64:                                               ; preds = %62
  br label %65

65:                                               ; preds = %64
  %66 = load ptr, ptr %4, align 8
  %67 = getelementptr inbounds i8, ptr %66, i32 -1
  store ptr %67, ptr %4, align 8
  br label %52, !llvm.loop !17

68:                                               ; preds = %62
  %69 = load ptr, ptr %4, align 8
  %70 = load ptr, ptr %3, align 8
  %71 = icmp eq ptr %69, %70
  br i1 %71, label %72, label %80

72:                                               ; preds = %68
  %73 = load ptr, ptr %4, align 8
  %74 = load i8, ptr %73, align 1
  %75 = sext i8 %74 to i32
  %76 = icmp eq i32 %75, 47
  br i1 %76, label %77, label %80

77:                                               ; preds = %72
  %78 = load ptr, ptr %4, align 8
  %79 = getelementptr inbounds nuw i8, ptr %78, i32 1
  store ptr %79, ptr %4, align 8
  br label %80

80:                                               ; preds = %77, %72, %68
  %81 = load ptr, ptr %4, align 8
  store i8 0, ptr %81, align 1
  %82 = load ptr, ptr %4, align 8
  store ptr %82, ptr %2, align 8
  store i32 1, ptr %5, align 4
  br label %83

83:                                               ; preds = %80, %12
  call void @llvm.lifetime.end.p0(i64 8, ptr %4) #10
  %84 = load ptr, ptr %2, align 8
  ret ptr %84
}

; Function Attrs: nounwind uwtable
define dso_local void @get_parent_directory(ptr noundef %0) #0 {
  %2 = alloca ptr, align 8
  store ptr %0, ptr %2, align 8
  %3 = load ptr, ptr %2, align 8
  %4 = call ptr @trim_directory(ptr noundef %3)
  ret void
}