; Function Attrs: nofree nounwind memory(argmem: readwrite) uwtable
define dso_local void @get_parent_directory(ptr noundef captures(address) %0) local_unnamed_addr #18 {
  %2 = load i8, ptr %0, align 1
  %3 = icmp eq i8 %2, 0
  br i1 %3, label %trim_directory.exit, label %4

4:                                                ; preds = %1
  %5 = tail call i64 @strlen(ptr noundef nonnull dereferenceable(1) %0) #22
  %6 = getelementptr inbounds nuw i8, ptr %0, i64 %5
  br label %7

7:                                                ; preds = %7, %4
  %.pn.i = phi ptr [ %6, %4 ], [ %.0.i, %7 ]
  %.0.i = getelementptr inbounds i8, ptr %.pn.i, i64 -1
  %8 = load i8, ptr %.0.i, align 1
  %9 = icmp eq i8 %8, 47
  %10 = icmp ugt ptr %.0.i, %0
  %11 = and i1 %9, %10
  br i1 %11, label %7, label %.preheader25.i, !llvm.loop !13

.preheader25.i:                                   ; preds = %7, %.preheader25.i
  %.1.i = phi ptr [ %16, %.preheader25.i ], [ %.0.i, %7 ]
  %12 = load i8, ptr %.1.i, align 1
  %13 = icmp ne i8 %12, 47
  %14 = icmp ugt ptr %.1.i, %0
  %15 = and i1 %14, %13
  %16 = getelementptr inbounds i8, ptr %.1.i, i64 -1
  br i1 %15, label %.preheader25.i, label %.preheader.i, !llvm.loop !14

.preheader.i:                                     ; preds = %.preheader25.i, %18
  %.2.i = phi ptr [ %19, %18 ], [ %.1.i, %.preheader25.i ]
  %17 = icmp ugt ptr %.2.i, %0
  br i1 %17, label %18, label %.critedge.i

18:                                               ; preds = %.preheader.i
  %19 = getelementptr inbounds i8, ptr %.2.i, i64 -1
  %20 = load i8, ptr %19, align 1
  %21 = icmp eq i8 %20, 47
  br i1 %21, label %.preheader.i, label %.critedge.i, !llvm.loop !15

.critedge.i:                                      ; preds = %18, %.preheader.i
  %22 = icmp eq ptr %.2.i, %0
  %23 = icmp eq i8 %2, 47
  %spec.select.idx.i = zext i1 %23 to i64
  %spec.select.i = getelementptr inbounds nuw i8, ptr %0, i64 %spec.select.idx.i
  %.3.i = select i1 %22, ptr %spec.select.i, ptr %.2.i
  store i8 0, ptr %.3.i, align 1
  br label %trim_directory.exit

trim_directory.exit:                              ; preds = %1, %.critedge.i
  ret void
}